; Function Attrs: nounwind uwtable
define range(i32 -1, 1) i32 @H5Tset_order(i64 noundef %0, i32 noundef %1) local_unnamed_addr #0 {
  %3 = load i8, ptr @H5_libinit_g, align 1
  %4 = trunc i8 %3 to i1
  %5 = load i8, ptr @H5_libterm_g, align 1
  %6 = trunc i8 %5 to i1
  %7 = select i1 %4, i1 true, i1 %6
  br i1 %7, label %15, label %8

8:                                                ; preds = %2
  %9 = tail call i32 @H5_init_library() #2
  %10 = icmp slt i32 %9, 0
  br i1 %10, label %11, label %15

11:                                               ; preds = %8
  %12 = load i64, ptr @H5E_FUNC_g, align 8
  %13 = load i64, ptr @H5E_CANTINIT_g, align 8
  %14 = tail call i32 (ptr, ptr, i32, i64, i64, ptr, ...) @H5E_printf_stack(ptr noundef nonnull @.str, ptr noundef nonnull @__func__.H5Tset_order, i32 noundef 182, i64 noundef %12, i64 noundef %13, ptr noundef nonnull @.str.1) #2
  br label %.thread33

15:                                               ; preds = %8, %2
  %16 = tail call i32 @H5CX_push() #2
  %17 = icmp slt i32 %16, 0
  br i1 %17, label %18, label %22

18:                                               ; preds = %15
  %19 = load i64, ptr @H5E_FUNC_g, align 8
  %20 = load i64, ptr @H5E_CANTSET_g, align 8
  %21 = tail call i32 (ptr, ptr, i32, i64, i64, ptr, ...) @H5E_printf_stack(ptr noundef nonnull @.str, ptr noundef nonnull @__func__.H5Tset_order, i32 noundef 182, i64 noundef %19, i64 noundef %20, ptr noundef nonnull @.str.2) #2
  br label %.thread33

22:                                               ; preds = %15
  %23 = tail call i32 @H5E_clear_stack() #2
  %24 = tail call ptr @H5I_object_verify(i64 noundef %0, i32 noundef 3) #2
  %25 = icmp eq ptr %24, null
  br i1 %25, label %26, label %30

26:                                               ; preds = %22
  %27 = load i64, ptr @H5E_DATATYPE_g, align 8
  %28 = load i64, ptr @H5E_BADTYPE_g, align 8
  %29 = tail call i32 (ptr, ptr, i32, i64, i64, ptr, ...) @H5E_printf_stack(ptr noundef nonnull @.str, ptr noundef nonnull @__func__.H5Tset_order, i32 noundef 186, i64 noundef %27, i64 noundef %28, ptr noundef nonnull @.str.3) #2
  br label %.thread39

30:                                               ; preds = %22
  %or.cond = icmp ugt i32 %1, 4
  %31 = icmp eq i32 %1, 3
  %or.cond3 = or i1 %or.cond, %31
  br i1 %or.cond3, label %32, label %36

32:                                               ; preds = %30
  %33 = load i64, ptr @H5E_DATATYPE_g, align 8
  %34 = load i64, ptr @H5E_BADVALUE_g, align 8
  %35 = tail call i32 (ptr, ptr, i32, i64, i64, ptr, ...) @H5E_printf_stack(ptr noundef nonnull @.str, ptr noundef nonnull @__func__.H5Tset_order, i32 noundef 188, i64 noundef %33, i64 noundef %34, ptr noundef nonnull @.str.7) #2
  br label %.thread39

36:                                               ; preds = %30
  %37 = getelementptr inbounds i8, ptr %24, i64 96
  %38 = load ptr, ptr %37, align 8
  %.not = icmp eq ptr %38, null
  br i1 %.not, label %43, label %39

39:                                               ; preds = %36
  %40 = load i64, ptr @H5E_ARGS_g, align 8
  %41 = load i64, ptr @H5E_CANTSET_g, align 8
  %42 = tail call i32 (ptr, ptr, i32, i64, i64, ptr, ...) @H5E_printf_stack(ptr noundef nonnull @.str, ptr noundef nonnull @__func__.H5Tset_order, i32 noundef 190, i64 noundef %40, i64 noundef %41, ptr noundef nonnull @.str.8) #2
  br label %.thread39

43:                                               ; preds = %36
  %44 = getelementptr inbounds i8, ptr %24, i64 40
  %45 = load ptr, ptr %44, align 8
  %46 = getelementptr inbounds i8, ptr %45, i64 8
  %47 = load i32, ptr %46, align 8
  %.not24 = icmp eq i32 %47, 0
  br i1 %.not24, label %52, label %48

48:                                               ; preds = %43
  %49 = load i64, ptr @H5E_DATATYPE_g, align 8
  %50 = load i64, ptr @H5E_CANTINIT_g, align 8
  %51 = tail call i32 (ptr, ptr, i32, i64, i64, ptr, ...) @H5E_printf_stack(ptr noundef nonnull @.str, ptr noundef nonnull @__func__.H5Tset_order, i32 noundef 192, i64 noundef %49, i64 noundef %50, ptr noundef nonnull @.str.9) #2
  br label %.thread39

52:                                               ; preds = %43
  %53 = tail call fastcc i32 @H5T__set_order(ptr noundef nonnull %24, i32 noundef %1)
  %54 = icmp slt i32 %53, 0
  br i1 %54, label %55, label %60

55:                                               ; preds = %52
  %56 = load i64, ptr @H5E_DATATYPE_g, align 8
  %57 = load i64, ptr @H5E_UNSUPPORTED_g, align 8
  %58 = tail call i32 (ptr, ptr, i32, i64, i64, ptr, ...) @H5E_printf_stack(ptr noundef nonnull @.str, ptr noundef nonnull @__func__.H5Tset_order, i32 noundef 196, i64 noundef %56, i64 noundef %57, ptr noundef nonnull @.str.10) #2
  br label %.thread39

.thread39:                                        ; preds = %55, %48, %39, %32, %26
  %59 = tail call i32 @H5CX_pop(i1 noundef zeroext true) #2
  br label %.thread33

60:                                               ; preds = %52
  %61 = tail call i32 @H5CX_pop(i1 noundef zeroext true) #2
  br label %63

.thread33:                                        ; preds = %18, %11, %.thread39
  %62 = tail call i32 @H5E_dump_api_stack() #2
  br label %63

63:                                               ; preds = %60, %.thread33
  %.0212836 = phi i32 [ -1, %.thread33 ], [ 0, %60 ]
  ret i32 %.0212836
}